; ModuleID = '15/691.c'
source_filename = "15/691.c"
target datalayout = "e-m:e-p270:32:32-p271:32:32-p272:64:64-i64:64-f80:128-n8:16:32:64-S128"
target triple = "x86_64-pc-linux-gnu"

@.str = private unnamed_addr constant [3 x i8] c"%d\00", align 1
@.str.1 = private unnamed_addr constant [4 x i8] c"%d\0A\00", align 1

; Function Attrs: noinline nounwind uwtable
define dso_local i32 @main() #0 {
  %1 = alloca i32, align 4
  %2 = alloca i32, align 4
  %3 = alloca i32, align 4
  %4 = alloca i32, align 4
  %5 = alloca [1000 x [1000 x i32]], align 16
  %6 = alloca i32, align 4
  %7 = alloca i32, align 4
  %8 = alloca i32, align 4
  %9 = alloca i32, align 4
  %10 = alloca i32, align 4
  store i32 0, i32* %1, align 4
  store i32 0, i32* %6, align 4
  store i32 0, i32* %7, align 4
  store i32 0, i32* %8, align 4
  store i32 0, i32* %9, align 4
  %11 = call i32 (i8*, ...) @__isoc99_scanf(i8* getelementptr inbounds ([3 x i8], [3 x i8]* @.str, i64 0, i64 0), i32* %4)
  store i32 0, i32* %2, align 4
  br label %12

12:                                               ; preds = %33, %0
  %13 = load i32, i32* %2, align 4
  %14 = load i32, i32* %4, align 4
  %15 = icmp slt i32 %13, %14
  br i1 %15, label %16, label %36

16:                                               ; preds = %12
  store i32 0, i32* %3, align 4
  br label %17

17:                                               ; preds = %29, %16
  %18 = load i32, i32* %3, align 4
  %19 = load i32, i32* %4, align 4
  %20 = icmp slt i32 %18, %19
  br i1 %20, label %21, label %32

21:                                               ; preds = %17
  %22 = load i32, i32* %2, align 4
  %23 = sext i32 %22 to i64
  %24 = getelementptr inbounds [1000 x [1000 x i32]], [1000 x [1000 x i32]]* %5, i64 0, i64 %23
  %25 = load i32, i32* %3, align 4
  %26 = sext i32 %25 to i64
  %27 = getelementptr inbounds [1000 x i32], [1000 x i32]* %24, i64 0, i64 %26
  %28 = call i32 (i8*, ...) @__isoc99_scanf(i8* getelementptr inbounds ([3 x i8], [3 x i8]* @.str, i64 0, i64 0), i32* %27)
  br label %29

29:                                               ; preds = %21
  %30 = load i32, i32* %3, align 4
  %31 = add nsw i32 %30, 1
  store i32 %31, i32* %3, align 4
  br label %17

32:                                               ; preds = %17
  br label %33

33:                                               ; preds = %32
  %34 = load i32, i32* %2, align 4
  %35 = add nsw i32 %34, 1
  store i32 %35, i32* %2, align 4
  br label %12

36:                                               ; preds = %12
  store i32 0, i32* %2, align 4
  br label %37

37:                                               ; preds = %72, %36
  %38 = load i32, i32* %2, align 4
  %39 = load i32, i32* %4, align 4
  %40 = icmp slt i32 %38, %39
  br i1 %40, label %41, label %75

41:                                               ; preds = %37
  store i32 0, i32* %3, align 4
  br label %42

42:                                               ; preds = %61, %41
  %43 = load i32, i32* %3, align 4
  %44 = load i32, i32* %4, align 4
  %45 = icmp slt i32 %43, %44
  br i1 %45, label %46, label %64

46:                                               ; preds = %42
  %47 = load i32, i32* %2, align 4
  %48 = sext i32 %47 to i64
  %49 = getelementptr inbounds [1000 x [1000 x i32]], [1000 x [1000 x i32]]* %5, i64 0, i64 %48
  %50 = load i32, i32* %3, align 4
  %51 = sext i32 %50 to i64
  %52 = getelementptr inbounds [1000 x i32], [1000 x i32]* %49, i64 0, i64 %51
  %53 = load i32, i32* %52, align 4
  %54 = icmp eq i32 %53, 0
  br i1 %54, label %55, label %60

55:                                               ; preds = %46
  %56 = load i32, i32* %2, align 4
  %57 = add nsw i32 %56, 1
  store i32 %57, i32* %6, align 4
  %58 = load i32, i32* %3, align 4
  %59 = add nsw i32 %58, 1
  store i32 %59, i32* %7, align 4
  br label %64

60:                                               ; preds = %46
  br label %61

61:                                               ; preds = %60
  %62 = load i32, i32* %3, align 4
  %63 = add nsw i32 %62, 1
  store i32 %63, i32* %3, align 4
  br label %42

64:                                               ; preds = %55, %42
  %65 = load i32, i32* %6, align 4
  %66 = icmp ne i32 %65, 0
  br i1 %66, label %70, label %67

67:                                               ; preds = %64
  %68 = load i32, i32* %7, align 4
  %69 = icmp ne i32 %68, 0
  br i1 %69, label %70, label %71

70:                                               ; preds = %67, %64
  br label %75

71:                                               ; preds = %67
  br label %72

72:                                               ; preds = %71
  %73 = load i32, i32* %2, align 4
  %74 = add nsw i32 %73, 1
  store i32 %74, i32* %2, align 4
  br label %37

75:                                               ; preds = %70, %37
  %76 = load i32, i32* %4, align 4
  %77 = sub nsw i32 %76, 1
  store i32 %77, i32* %2, align 4
  br label %78

78:                                               ; preds = %113, %75
  %79 = load i32, i32* %2, align 4
  %80 = icmp sge i32 %79, 0
  br i1 %80, label %81, label %116

81:                                               ; preds = %78
  %82 = load i32, i32* %4, align 4
  %83 = sub nsw i32 %82, 1
  store i32 %83, i32* %3, align 4
  br label %84

84:                                               ; preds = %102, %81
  %85 = load i32, i32* %3, align 4
  %86 = icmp sge i32 %85, 0
  br i1 %86, label %87, label %105

87:                                               ; preds = %84
  %88 = load i32, i32* %2, align 4
  %89 = sext i32 %88 to i64
  %90 = getelementptr inbounds [1000 x [1000 x i32]], [1000 x [1000 x i32]]* %5, i64 0, i64 %89
  %91 = load i32, i32* %3, align 4
  %92 = sext i32 %91 to i64
  %93 = getelementptr inbounds [1000 x i32], [1000 x i32]* %90, i64 0, i64 %92
  %94 = load i32, i32* %93, align 4
  %95 = icmp eq i32 %94, 0
  br i1 %95, label %96, label %101

96:                                               ; preds = %87
  %97 = load i32, i32* %2, align 4
  %98 = sub nsw i32 %97, 1
  store i32 %98, i32* %8, align 4
  %99 = load i32, i32* %3, align 4
  %100 = sub nsw i32 %99, 1
  store i32 %100, i32* %9, align 4
  br label %105

101:                                              ; preds = %87
  br label %102

102:                                              ; preds = %101
  %103 = load i32, i32* %3, align 4
  %104 = add nsw i32 %103, -1
  store i32 %104, i32* %3, align 4
  br label %84

105:                                              ; preds = %96, %84
  %106 = load i32, i32* %8, align 4
  %107 = icmp ne i32 %106, 0
  br i1 %107, label %111, label %108

108:                                              ; preds = %105
  %109 = load i32, i32* %9, align 4
  %110 = icmp ne i32 %109, 0
  br i1 %110, label %111, label %112

111:                                              ; preds = %108, %105
  br label %116

112:                                              ; preds = %108
  br label %113

113:                                              ; preds = %112
  %114 = load i32, i32* %2, align 4
  %115 = add nsw i32 %114, -1
  store i32 %115, i32* %2, align 4
  br label %78

116:                                              ; preds = %111, %78
  %117 = load i32, i32* %8, align 4
  %118 = load i32, i32* %6, align 4
  %119 = sub nsw i32 %117, %118
  %120 = add nsw i32 %119, 1
  %121 = load i32, i32* %9, align 4
  %122 = load i32, i32* %7, align 4
  %123 = sub nsw i32 %121, %122
  %124 = add nsw i32 %123, 1
  %125 = mul nsw i32 %120, %124
  store i32 %125, i32* %10, align 4
  %126 = load i32, i32* %10, align 4
  %127 = call i32 (i8*, ...) @printf(i8* getelementptr inbounds ([4 x i8], [4 x i8]* @.str.1, i64 0, i64 0), i32 %126)
  ret i32 0
}

declare dso_local i32 @__isoc99_scanf(i8*, ...) #1

declare dso_local i32 @printf(i8*, ...) #1


!llvm.module.flags = !{!0}
!llvm.ident = !{!1}

!0 = !{i32 1, !"wchar_size", i32 4}
!1 = !{!"clang version 10.0.0-4ubuntu1 "}
